Certificate:
    Data:
        Version: 3 (0x2)
        Serial Number: 1 (0x1)
    Signature Algorithm: sha256WithRSAEncryption
        Issuer: C=CA, ST=Ontario, L=Toronto, O=Savi, OU=Savi, CN=Savi CA/name=EasyRSA/emailAddress=spandan@savinetwork.ca
        Validity
            Not Before: May  2 15:37:49 2016 GMT
            Not After : Apr 30 15:37:49 2026 GMT
        Subject: C=CA, ST=Ontario, L=Toronto, O=Savi, OU=Savi, CN=server/name=EasyRSA/emailAddress=spandan@savinetwork.ca
        Subject Public Key Info:
            Public Key Algorithm: rsaEncryption
                Public-Key: (2048 bit)
                Modulus:
                    00:a3:55:6c:67:41:03:88:3c:6e:91:b9:35:1d:99:
                    37:98:bd:10:f9:b5:43:14:39:ca:18:cc:f9:d8:cc:
                    f1:64:b6:e2:08:ba:e2:53:c7:eb:5f:50:09:b4:db:
                    f9:98:8a:2e:6b:57:78:ec:f3:9d:b5:14:c3:c0:bd:
                    28:db:ab:f3:a3:9a:d8:74:d3:23:bf:a2:42:8e:e8:
                    e1:32:8e:ca:45:1e:96:65:8a:83:d9:c5:9b:38:72:
                    4f:62:d3:87:80:af:fe:20:29:57:28:51:45:d0:5e:
                    94:fd:f1:2a:80:9d:c2:50:f8:02:08:d7:40:f2:51:
                    31:cd:a6:3a:5f:d8:b7:02:fd:39:ab:b4:6a:cb:04:
                    6e:01:50:15:3e:e7:bb:2f:28:b2:98:e1:df:d3:6e:
                    44:6a:ec:45:a7:04:60:84:fd:e0:56:ff:e4:2f:e4:
                    5d:1c:45:52:84:81:29:3e:68:fb:81:dc:9b:0e:08:
                    6d:d7:5c:20:01:f5:61:fb:0f:f5:dd:2f:01:af:7c:
                    57:c5:7d:05:6f:3f:1a:07:a2:91:4d:f1:3f:b2:fe:
                    de:ac:f5:36:c5:22:b8:f0:e7:5c:e9:04:7b:74:36:
                    ae:6d:72:b0:9a:4c:5b:29:f3:a2:59:fc:db:a9:57:
                    82:26:b8:b4:c3:7b:7c:ba:12:a9:4e:12:1a:88:6d:
                    28:cd
                Exponent: 65537 (0x10001)
        X509v3 extensions:
            X509v3 Basic Constraints: 
                CA:FALSE
            Netscape Cert Type: 
                SSL Server
            Netscape Comment: 
                Easy-RSA Generated Server Certificate
            X509v3 Subject Key Identifier: 
                09:65:F2:AF:46:76:3F:DD:D2:90:9D:82:FD:3F:09:22:9C:19:3A:B7
            X509v3 Authority Key Identifier: 
                keyid:28:FF:E9:19:40:FB:88:40:8C:0F:68:F4:26:F9:20:49:E5:E1:33:FB
                DirName:/C=CA/ST=Ontario/L=Toronto/O=Savi/OU=Savi/CN=Savi CA/name=EasyRSA/emailAddress=spandan@savinetwork.ca
                serial:F9:B8:15:B7:E9:0B:F7:36

            X509v3 Extended Key Usage: 
                TLS Web Server Authentication
            X509v3 Key Usage: 
                Digital Signature, Key Encipherment
    Signature Algorithm: sha256WithRSAEncryption
         0e:12:6e:31:ef:07:0a:c0:f9:dc:ff:d0:67:78:2e:62:89:d6:
         85:a5:5a:3b:55:2d:44:96:18:a3:b5:27:ef:41:68:c7:ad:e5:
         c4:a6:54:57:7d:c5:b0:43:9f:b7:e0:60:70:db:ca:4d:1a:4f:
         e9:5e:b2:0b:f2:70:09:2d:54:e5:06:fb:72:46:a7:5b:a5:92:
         be:bb:89:34:a3:da:4c:2b:6a:87:db:30:26:3e:a1:06:52:55:
         27:13:f7:60:07:9c:5e:c2:74:36:d1:79:69:65:49:fa:41:64:
         c0:d1:aa:c6:f6:a3:dc:2a:ea:e4:bc:95:86:17:e8:f5:f7:30:
         33:5d:0e:9d:34:07:9d:fe:a4:5f:dd:d4:fb:bf:08:70:8b:b4:
         f1:41:08:30:1a:a0:44:bf:db:16:06:90:8d:74:0a:41:75:37:
         b1:bc:02:27:a3:03:1c:93:e6:88:50:aa:3e:e9:63:5b:87:d3:
         59:ab:00:25:bf:cc:59:ed:ea:43:83:49:79:1c:de:f3:5d:aa:
         c8:04:47:80:f1:5d:d4:8e:ae:81:36:3f:c9:4e:53:bc:d4:a1:
         d5:52:10:2b:34:d1:15:06:6b:79:1e:46:14:d3:7e:b5:4d:1a:
         53:f2:76:59:97:e8:ff:db:d4:b3:34:ea:39:e9:37:5b:4d:15:
         30:91:58:05
-----BEGIN CERTIFICATE-----
MIIFHTCCBAWgAwIBAgIBATANBgkqhkiG9w0BAQsFADCBmjELMAkGA1UEBhMCQ0Ex
EDAOBgNVBAgTB09udGFyaW8xEDAOBgNVBAcTB1Rvcm9udG8xDTALBgNVBAoTBFNh
dmkxDTALBgNVBAsTBFNhdmkxEDAOBgNVBAMTB1NhdmkgQ0ExEDAOBgNVBCkTB0Vh
c3lSU0ExJTAjBgkqhkiG9w0BCQEWFnNwYW5kYW5Ac2F2aW5ldHdvcmsuY2EwHhcN
MTYwNTAyMTUzNzQ5WhcNMjYwNDMwMTUzNzQ5WjCBmTELMAkGA1UEBhMCQ0ExEDAO
BgNVBAgTB09udGFyaW8xEDAOBgNVBAcTB1Rvcm9udG8xDTALBgNVBAoTBFNhdmkx
DTALBgNVBAsTBFNhdmkxDzANBgNVBAMTBnNlcnZlcjEQMA4GA1UEKRMHRWFzeVJT
QTElMCMGCSqGSIb3DQEJARYWc3BhbmRhbkBzYXZpbmV0d29yay5jYTCCASIwDQYJ
KoZIhvcNAQEBBQADggEPADCCAQoCggEBAKNVbGdBA4g8bpG5NR2ZN5i9EPm1QxQ5
yhjM+djM8WS24gi64lPH619QCbTb+ZiKLmtXeOzznbUUw8C9KNur86Oa2HTTI7+i
Qo7o4TKOykUelmWKg9nFmzhyT2LTh4Cv/iApVyhRRdBelP3xKoCdwlD4AgjXQPJR
Mc2mOl/YtwL9Oau0assEbgFQFT7nuy8ospjh39NuRGrsRacEYIT94Fb/5C/kXRxF
UoSBKT5o+4Hcmw4IbddcIAH1YfsP9d0vAa98V8V9BW8/GgeikU3xP7L+3qz1NsUi
uPDnXOkEe3Q2rm1ysJpMWynzoln826lXgia4tMN7fLoSqU4SGohtKM0CAwEAAaOC
AWswggFnMAkGA1UdEwQCMAAwEQYJYIZIAYb4QgEBBAQDAgZAMDQGCWCGSAGG+EIB
DQQnFiVFYXN5LVJTQSBHZW5lcmF0ZWQgU2VydmVyIENlcnRpZmljYXRlMB0GA1Ud
DgQWBBQJZfKvRnY/3dKQnYL9PwkinBk6tzCBzwYDVR0jBIHHMIHEgBQo/+kZQPuI
QIwPaPQm+SBJ5eEz+6GBoKSBnTCBmjELMAkGA1UEBhMCQ0ExEDAOBgNVBAgTB09u
dGFyaW8xEDAOBgNVBAcTB1Rvcm9udG8xDTALBgNVBAoTBFNhdmkxDTALBgNVBAsT
BFNhdmkxEDAOBgNVBAMTB1NhdmkgQ0ExEDAOBgNVBCkTB0Vhc3lSU0ExJTAjBgkq
hkiG9w0BCQEWFnNwYW5kYW5Ac2F2aW5ldHdvcmsuY2GCCQD5uBW36Qv3NjATBgNV
HSUEDDAKBggrBgEFBQcDATALBgNVHQ8EBAMCBaAwDQYJKoZIhvcNAQELBQADggEB
AA4SbjHvBwrA+dz/0Gd4LmKJ1oWlWjtVLUSWGKO1J+9BaMet5cSmVFd9xbBDn7fg
YHDbyk0aT+lesgvycAktVOUG+3JGp1ulkr67iTSj2kwraofbMCY+oQZSVScT92AH
nF7CdDbReWllSfpBZMDRqsb2o9wq6uS8lYYX6PX3MDNdDp00B53+pF/d1Pu/CHCL
tPFBCDAaoES/2xYGkI10CkF1N7G8AiejAxyT5ohQqj7pY1uH01mrACW/zFnt6kOD
SXkc3vNdqsgER4DxXdSOroE2P8lOU7zUodVSECs00RUGa3keRhTTfrVNGlPydlmX
6P/b1LM06jnpN1tNFTCRWAU=
-----END CERTIFICATE-----
