Certificate:
    Data:
        Version: 3 (0x2)
        Serial Number: 3 (0x3)
    Signature Algorithm: sha256WithRSAEncryption
        Issuer: C=CA, ST=Ontario, L=Toronto, O=Savi, OU=Savi, CN=Savi CA/name=EasyRSA/emailAddress=spandan@savinetwork.ca
        Validity
            Not Before: May 17 00:04:03 2016 GMT
            Not After : May 15 00:04:03 2026 GMT
        Subject: C=CA, ST=Ontario, L=Toronto, O=Savi, OU=Savi, CN=client2/name=EasyRSA/emailAddress=spandan@savinetwork.ca
        Subject Public Key Info:
            Public Key Algorithm: rsaEncryption
                Public-Key: (2048 bit)
                Modulus:
                    00:a0:85:08:dd:2d:66:d6:fa:79:ee:52:c2:e3:c8:
                    66:f8:31:3a:b4:29:81:b5:dc:c9:a3:a9:1b:fc:be:
                    33:d4:63:e4:4e:65:52:9d:5b:98:33:d1:01:fe:6e:
                    3b:2a:d0:ca:4a:89:9f:fd:62:9b:7b:36:99:23:75:
                    6c:1b:b6:ad:88:60:7e:61:37:64:a5:34:10:1a:ff:
                    c9:43:98:7b:b3:5b:dd:05:ec:34:0c:bf:cd:1d:d7:
                    dc:ec:08:9e:65:50:06:9d:4c:42:3b:9f:1b:03:cc:
                    0d:88:62:a6:7a:03:f8:54:94:25:19:92:6d:37:77:
                    c4:80:40:a8:81:0b:63:a6:61:ef:7a:48:16:50:07:
                    9f:b9:d6:b7:8d:25:31:20:7a:01:8f:91:88:ff:1a:
                    49:7d:c2:46:b8:2d:ba:7a:0d:3c:45:4b:e9:d7:50:
                    57:b5:55:cb:99:5f:a7:93:86:92:3e:da:83:1c:6f:
                    f7:43:12:0f:d8:55:6c:ec:d2:0b:c5:90:0f:d0:8d:
                    ed:f1:ce:85:7b:18:dc:b6:d0:5f:1a:83:df:fc:e2:
                    6b:ab:21:b3:f6:13:aa:ed:15:be:7a:f3:8a:ba:a6:
                    ad:23:5f:6b:46:28:f7:bd:33:35:57:ce:b3:67:10:
                    10:24:3d:2f:81:87:a9:db:b6:87:ce:ff:aa:a8:c3:
                    a9:87
                Exponent: 65537 (0x10001)
        X509v3 extensions:
            X509v3 Basic Constraints: 
                CA:FALSE
            Netscape Comment: 
                Easy-RSA Generated Certificate
            X509v3 Subject Key Identifier: 
                87:F8:09:03:53:39:A2:CA:C0:AC:48:C4:17:2D:A9:DF:D0:20:F4:12
            X509v3 Authority Key Identifier: 
                keyid:28:FF:E9:19:40:FB:88:40:8C:0F:68:F4:26:F9:20:49:E5:E1:33:FB
                DirName:/C=CA/ST=Ontario/L=Toronto/O=Savi/OU=Savi/CN=Savi CA/name=EasyRSA/emailAddress=spandan@savinetwork.ca
                serial:F9:B8:15:B7:E9:0B:F7:36

            X509v3 Extended Key Usage: 
                TLS Web Client Authentication
            X509v3 Key Usage: 
                Digital Signature
    Signature Algorithm: sha256WithRSAEncryption
         27:26:d0:5e:74:64:5b:69:d6:bf:09:d2:8d:a9:d1:b5:13:44:
         fb:7e:af:0a:3c:87:a7:da:56:20:41:ea:04:a6:5a:0c:13:94:
         22:40:de:8a:ad:a0:f3:f8:30:1b:f4:82:7b:07:ea:61:4e:bd:
         69:2b:af:0e:2e:e3:73:e3:04:74:55:25:7c:54:17:cb:4c:76:
         e4:0a:75:8b:d8:85:fa:f3:e9:17:ba:04:2a:95:e8:cd:95:61:
         0a:2e:10:18:c2:c4:f7:04:b5:e8:4e:80:79:de:a1:40:ef:e2:
         a5:04:25:c3:c4:fa:ca:b5:7c:64:90:47:52:f6:c7:d7:48:70:
         fe:17:6a:6c:4e:30:ed:fa:9b:1b:06:a6:2e:2b:9f:2b:06:1c:
         1f:1c:e4:e1:62:b2:df:1b:d6:80:2d:eb:0a:22:9b:bc:8f:01:
         99:76:0a:8f:6b:31:9e:1c:48:3d:99:46:e9:e5:74:6a:5a:be:
         43:7b:9e:f9:12:f4:1e:b6:aa:bc:a0:a3:e1:3e:b0:63:7b:e5:
         4f:b5:39:72:ec:7a:98:c0:d5:e5:b5:d3:13:cf:3f:21:43:c1:
         e5:17:4a:d7:5c:bd:e3:e5:53:fc:7a:b6:6d:24:a7:10:6a:8e:
         32:dd:8a:f2:18:51:d9:b2:57:9a:11:df:c3:07:03:a0:cb:e5:
         fa:1d:12:f4
-----BEGIN CERTIFICATE-----
MIIFBDCCA+ygAwIBAgIBAzANBgkqhkiG9w0BAQsFADCBmjELMAkGA1UEBhMCQ0Ex
EDAOBgNVBAgTB09udGFyaW8xEDAOBgNVBAcTB1Rvcm9udG8xDTALBgNVBAoTBFNh
dmkxDTALBgNVBAsTBFNhdmkxEDAOBgNVBAMTB1NhdmkgQ0ExEDAOBgNVBCkTB0Vh
c3lSU0ExJTAjBgkqhkiG9w0BCQEWFnNwYW5kYW5Ac2F2aW5ldHdvcmsuY2EwHhcN
MTYwNTE3MDAwNDAzWhcNMjYwNTE1MDAwNDAzWjCBmjELMAkGA1UEBhMCQ0ExEDAO
BgNVBAgTB09udGFyaW8xEDAOBgNVBAcTB1Rvcm9udG8xDTALBgNVBAoTBFNhdmkx
DTALBgNVBAsTBFNhdmkxEDAOBgNVBAMTB2NsaWVudDIxEDAOBgNVBCkTB0Vhc3lS
U0ExJTAjBgkqhkiG9w0BCQEWFnNwYW5kYW5Ac2F2aW5ldHdvcmsuY2EwggEiMA0G
CSqGSIb3DQEBAQUAA4IBDwAwggEKAoIBAQCghQjdLWbW+nnuUsLjyGb4MTq0KYG1
3MmjqRv8vjPUY+ROZVKdW5gz0QH+bjsq0MpKiZ/9Ypt7NpkjdWwbtq2IYH5hN2Sl
NBAa/8lDmHuzW90F7DQMv80d19zsCJ5lUAadTEI7nxsDzA2IYqZ6A/hUlCUZkm03
d8SAQKiBC2OmYe96SBZQB5+51reNJTEgegGPkYj/Gkl9wka4Lbp6DTxFS+nXUFe1
VcuZX6eThpI+2oMcb/dDEg/YVWzs0gvFkA/Qje3xzoV7GNy20F8ag9/84murIbP2
E6rtFb5684q6pq0jX2tGKPe9MzVXzrNnEBAkPS+Bh6nbtofO/6qow6mHAgMBAAGj
ggFRMIIBTTAJBgNVHRMEAjAAMC0GCWCGSAGG+EIBDQQgFh5FYXN5LVJTQSBHZW5l
cmF0ZWQgQ2VydGlmaWNhdGUwHQYDVR0OBBYEFIf4CQNTOaLKwKxIxBctqd/QIPQS
MIHPBgNVHSMEgccwgcSAFCj/6RlA+4hAjA9o9Cb5IEnl4TP7oYGgpIGdMIGaMQsw
CQYDVQQGEwJDQTEQMA4GA1UECBMHT250YXJpbzEQMA4GA1UEBxMHVG9yb250bzEN
MAsGA1UEChMEU2F2aTENMAsGA1UECxMEU2F2aTEQMA4GA1UEAxMHU2F2aSBDQTEQ
MA4GA1UEKRMHRWFzeVJTQTElMCMGCSqGSIb3DQEJARYWc3BhbmRhbkBzYXZpbmV0
d29yay5jYYIJAPm4FbfpC/c2MBMGA1UdJQQMMAoGCCsGAQUFBwMCMAsGA1UdDwQE
AwIHgDANBgkqhkiG9w0BAQsFAAOCAQEAJybQXnRkW2nWvwnSjanRtRNE+36vCjyH
p9pWIEHqBKZaDBOUIkDeiq2g8/gwG/SCewfqYU69aSuvDi7jc+MEdFUlfFQXy0x2
5Ap1i9iF+vPpF7oEKpXozZVhCi4QGMLE9wS16E6Aed6hQO/ipQQlw8T6yrV8ZJBH
UvbH10hw/hdqbE4w7fqbGwamLiufKwYcHxzk4WKy3xvWgC3rCiKbvI8BmXYKj2sx
nhxIPZlG6eV0alq+Q3ue+RL0HraqvKCj4T6wY3vlT7U5cux6mMDV5bXTE88/IUPB
5RdK11y94+VT/Hq2bSSnEGqOMt2K8hhR2bJXmhHfwwcDoMvl+h0S9A==
-----END CERTIFICATE-----
