Certificate:
    Data:
        Version: 3 (0x2)
        Serial Number: 4 (0x4)
    Signature Algorithm: sha256WithRSAEncryption
        Issuer: C=CA, ST=Ontario, L=Toronto, O=Savi, OU=Savi, CN=Savi CA/name=EasyRSA/emailAddress=spandan@savinetwork.ca
        Validity
            Not Before: May 17 00:04:16 2016 GMT
            Not After : May 15 00:04:16 2026 GMT
        Subject: C=CA, ST=Ontario, L=Toronto, O=Savi, OU=Savi, CN=client3/name=EasyRSA/emailAddress=spandan@savinetwork.ca
        Subject Public Key Info:
            Public Key Algorithm: rsaEncryption
                Public-Key: (2048 bit)
                Modulus:
                    00:bc:e8:e8:02:fb:48:4e:97:82:81:82:52:db:39:
                    15:b5:4e:b9:34:8a:c9:48:4b:57:f5:03:81:e2:05:
                    0a:38:24:50:2f:d7:35:da:09:b0:e2:57:c8:07:13:
                    6a:54:4f:6e:3a:78:36:08:c0:02:fd:dc:6d:46:91:
                    cd:b4:2e:bd:1d:26:d9:0f:2a:46:e6:21:a0:d2:a9:
                    c7:0c:74:bb:a5:b2:ff:73:37:6f:3d:0d:a6:cc:57:
                    05:54:9f:00:99:66:eb:82:1f:21:ca:fd:66:cb:a9:
                    ff:75:55:a1:db:e7:d5:56:8b:d8:d3:47:8b:d2:69:
                    1b:50:23:ee:70:22:4a:d3:71:db:8d:b5:1d:24:a0:
                    27:58:a6:6d:7f:68:11:26:91:2e:1b:af:d5:5d:b1:
                    51:b2:0f:89:db:66:90:2f:f6:59:83:f3:63:ed:9b:
                    38:2c:28:03:88:b9:d0:bc:ee:7b:9a:3c:c9:4c:fa:
                    ce:82:39:81:0a:cc:1c:fc:83:79:12:d2:de:ba:56:
                    3e:2b:c2:97:b0:5d:63:5c:ec:d7:bd:fb:ad:08:6c:
                    c0:87:4f:e4:db:68:75:08:61:77:c3:b1:cf:9f:3a:
                    22:57:9b:06:66:da:53:61:be:30:23:69:6d:42:76:
                    09:4c:b7:cb:54:31:fb:4e:12:47:8e:41:c7:12:80:
                    9f:ad
                Exponent: 65537 (0x10001)
        X509v3 extensions:
            X509v3 Basic Constraints: 
                CA:FALSE
            Netscape Comment: 
                Easy-RSA Generated Certificate
            X509v3 Subject Key Identifier: 
                DF:E9:78:08:36:5B:25:8B:90:30:3B:CF:77:CF:54:2E:5E:0A:96:49
            X509v3 Authority Key Identifier: 
                keyid:28:FF:E9:19:40:FB:88:40:8C:0F:68:F4:26:F9:20:49:E5:E1:33:FB
                DirName:/C=CA/ST=Ontario/L=Toronto/O=Savi/OU=Savi/CN=Savi CA/name=EasyRSA/emailAddress=spandan@savinetwork.ca
                serial:F9:B8:15:B7:E9:0B:F7:36

            X509v3 Extended Key Usage: 
                TLS Web Client Authentication
            X509v3 Key Usage: 
                Digital Signature
    Signature Algorithm: sha256WithRSAEncryption
         a9:93:41:76:c7:3c:85:d1:31:04:ae:12:d3:55:5e:58:5e:e2:
         dc:98:5f:6d:35:bc:9d:7a:48:5e:c1:18:06:e2:9d:d5:f5:97:
         b1:04:0b:ae:74:8e:7b:7e:ac:6a:7c:8d:58:2d:c5:69:ed:a2:
         43:67:87:88:71:a0:15:b7:05:32:25:45:00:d9:ca:d9:4a:30:
         b4:02:dc:f7:33:30:c1:88:ce:5f:2b:4f:6e:4e:5f:5a:85:a9:
         e3:c9:64:58:dd:ab:8f:8f:1f:83:75:ad:dc:15:66:2b:65:41:
         69:33:60:13:94:23:54:a4:ff:ca:1a:e1:38:00:26:07:18:40:
         6b:5d:63:30:95:aa:e5:a8:50:aa:c7:79:90:72:7a:9d:77:bf:
         1e:89:38:c6:be:22:89:f5:a5:3c:7c:42:3b:28:0f:0a:87:cc:
         bf:f6:95:b0:a9:88:26:18:80:fc:04:c5:38:09:e6:88:bb:2e:
         bb:c1:32:2f:41:42:0f:f7:8c:19:c3:7b:a8:8f:23:60:43:51:
         4f:19:ff:cb:82:09:ea:11:d7:ef:78:63:e0:15:a2:d7:20:12:
         12:19:87:bf:54:5f:6c:0f:2e:ac:d8:87:04:03:4e:70:5a:59:
         07:f1:b3:27:79:33:13:11:d2:a3:fe:8c:1b:ff:fc:eb:95:8f:
         72:f9:8e:b3
-----BEGIN CERTIFICATE-----
MIIFBDCCA+ygAwIBAgIBBDANBgkqhkiG9w0BAQsFADCBmjELMAkGA1UEBhMCQ0Ex
EDAOBgNVBAgTB09udGFyaW8xEDAOBgNVBAcTB1Rvcm9udG8xDTALBgNVBAoTBFNh
dmkxDTALBgNVBAsTBFNhdmkxEDAOBgNVBAMTB1NhdmkgQ0ExEDAOBgNVBCkTB0Vh
c3lSU0ExJTAjBgkqhkiG9w0BCQEWFnNwYW5kYW5Ac2F2aW5ldHdvcmsuY2EwHhcN
MTYwNTE3MDAwNDE2WhcNMjYwNTE1MDAwNDE2WjCBmjELMAkGA1UEBhMCQ0ExEDAO
BgNVBAgTB09udGFyaW8xEDAOBgNVBAcTB1Rvcm9udG8xDTALBgNVBAoTBFNhdmkx
DTALBgNVBAsTBFNhdmkxEDAOBgNVBAMTB2NsaWVudDMxEDAOBgNVBCkTB0Vhc3lS
U0ExJTAjBgkqhkiG9w0BCQEWFnNwYW5kYW5Ac2F2aW5ldHdvcmsuY2EwggEiMA0G
CSqGSIb3DQEBAQUAA4IBDwAwggEKAoIBAQC86OgC+0hOl4KBglLbORW1Trk0islI
S1f1A4HiBQo4JFAv1zXaCbDiV8gHE2pUT246eDYIwAL93G1Gkc20Lr0dJtkPKkbm
IaDSqccMdLulsv9zN289DabMVwVUnwCZZuuCHyHK/WbLqf91VaHb59VWi9jTR4vS
aRtQI+5wIkrTcduNtR0koCdYpm1/aBEmkS4br9VdsVGyD4nbZpAv9lmD82Ptmzgs
KAOIudC87nuaPMlM+s6COYEKzBz8g3kS0t66Vj4rwpewXWNc7Ne9+60IbMCHT+Tb
aHUIYXfDsc+fOiJXmwZm2lNhvjAjaW1CdglMt8tUMftOEkeOQccSgJ+tAgMBAAGj
ggFRMIIBTTAJBgNVHRMEAjAAMC0GCWCGSAGG+EIBDQQgFh5FYXN5LVJTQSBHZW5l
cmF0ZWQgQ2VydGlmaWNhdGUwHQYDVR0OBBYEFN/peAg2WyWLkDA7z3fPVC5eCpZJ
MIHPBgNVHSMEgccwgcSAFCj/6RlA+4hAjA9o9Cb5IEnl4TP7oYGgpIGdMIGaMQsw
CQYDVQQGEwJDQTEQMA4GA1UECBMHT250YXJpbzEQMA4GA1UEBxMHVG9yb250bzEN
MAsGA1UEChMEU2F2aTENMAsGA1UECxMEU2F2aTEQMA4GA1UEAxMHU2F2aSBDQTEQ
MA4GA1UEKRMHRWFzeVJTQTElMCMGCSqGSIb3DQEJARYWc3BhbmRhbkBzYXZpbmV0
d29yay5jYYIJAPm4FbfpC/c2MBMGA1UdJQQMMAoGCCsGAQUFBwMCMAsGA1UdDwQE
AwIHgDANBgkqhkiG9w0BAQsFAAOCAQEAqZNBdsc8hdExBK4S01VeWF7i3JhfbTW8
nXpIXsEYBuKd1fWXsQQLrnSOe36sanyNWC3Fae2iQ2eHiHGgFbcFMiVFANnK2Uow
tALc9zMwwYjOXytPbk5fWoWp48lkWN2rj48fg3Wt3BVmK2VBaTNgE5QjVKT/yhrh
OAAmBxhAa11jMJWq5ahQqsd5kHJ6nXe/Hok4xr4iifWlPHxCOygPCofMv/aVsKmI
JhiA/ATFOAnmiLsuu8EyL0FCD/eMGcN7qI8jYENRTxn/y4IJ6hHX73hj4BWi1yAS
EhmHv1RfbA8urNiHBANOcFpZB/GzJ3kzExHSo/6MG//865WPcvmOsw==
-----END CERTIFICATE-----
