Certificate:
    Data:
        Version: 3 (0x2)
        Serial Number: 5 (0x5)
    Signature Algorithm: sha256WithRSAEncryption
        Issuer: C=CA, ST=Ontario, L=Toronto, O=Savi, OU=Savi, CN=Savi CA/name=EasyRSA/emailAddress=spandan@savinetwork.ca
        Validity
            Not Before: May 17 00:04:29 2016 GMT
            Not After : May 15 00:04:29 2026 GMT
        Subject: C=CA, ST=Ontario, L=Toronto, O=Savi, OU=Savi, CN=client4/name=EasyRSA/emailAddress=spandan@savinetwork.ca
        Subject Public Key Info:
            Public Key Algorithm: rsaEncryption
                Public-Key: (2048 bit)
                Modulus:
                    00:df:f8:e8:b4:6f:c4:2a:82:97:e8:40:fc:a1:36:
                    61:69:58:ed:9f:1b:e2:fe:43:0c:01:70:3c:d8:b6:
                    24:6d:8c:ef:61:bf:3b:08:3d:95:61:2f:50:9f:cf:
                    65:67:22:a5:36:83:f7:82:b6:ce:f7:4f:df:69:5b:
                    73:8f:f8:e2:58:74:07:f0:ce:09:33:b8:fe:40:65:
                    c2:ee:4f:c2:3a:9f:99:16:a1:d3:a1:d1:1b:f5:ac:
                    ec:c6:47:9a:9d:f8:38:e0:10:6b:1f:a0:8f:95:27:
                    bb:c1:5a:68:17:90:b5:97:95:41:9a:2a:fd:19:2c:
                    e1:4e:00:94:43:bf:fd:0a:86:f0:7d:ea:48:a1:40:
                    43:4f:db:3b:e8:39:87:de:7c:c6:5c:ff:d1:d8:2d:
                    ff:ca:c8:55:77:df:39:dd:27:55:72:52:3f:e6:fa:
                    38:71:ba:48:1a:aa:14:75:4f:10:e4:72:f4:94:0a:
                    b2:8f:2f:5a:93:52:fb:82:22:49:ac:81:cb:a4:e1:
                    f0:26:27:cc:30:82:4a:0c:c6:56:d2:5c:0c:60:8a:
                    93:2d:31:67:cc:8f:60:03:48:14:fc:ca:05:3b:93:
                    ec:1d:10:4c:e6:64:4f:a9:d2:03:dc:cc:9f:cd:51:
                    7d:53:56:fd:3f:fd:20:09:20:53:57:43:d3:a6:49:
                    e1:f9
                Exponent: 65537 (0x10001)
        X509v3 extensions:
            X509v3 Basic Constraints: 
                CA:FALSE
            Netscape Comment: 
                Easy-RSA Generated Certificate
            X509v3 Subject Key Identifier: 
                E3:67:51:72:6A:F2:2A:A4:D7:7F:51:F1:5D:DA:D2:5C:25:54:08:2C
            X509v3 Authority Key Identifier: 
                keyid:28:FF:E9:19:40:FB:88:40:8C:0F:68:F4:26:F9:20:49:E5:E1:33:FB
                DirName:/C=CA/ST=Ontario/L=Toronto/O=Savi/OU=Savi/CN=Savi CA/name=EasyRSA/emailAddress=spandan@savinetwork.ca
                serial:F9:B8:15:B7:E9:0B:F7:36

            X509v3 Extended Key Usage: 
                TLS Web Client Authentication
            X509v3 Key Usage: 
                Digital Signature
    Signature Algorithm: sha256WithRSAEncryption
         09:8f:3d:9b:45:e4:d9:2b:7e:4b:a6:f2:66:0c:e0:23:f1:be:
         af:19:f8:c1:fa:50:15:7a:be:70:58:bb:9d:72:63:7b:16:e6:
         32:e0:ad:37:52:9c:61:96:47:44:9c:0e:21:8d:df:0e:62:0c:
         e7:25:e2:5e:6b:af:c5:3f:d6:f6:4a:60:cb:0c:07:1d:24:49:
         c0:72:d1:a9:64:7c:e6:95:61:90:e2:41:e4:2d:9c:20:28:41:
         73:51:e7:cc:1c:f9:a3:d9:e7:e9:99:64:8b:11:4b:b8:d3:96:
         c4:46:32:a4:ab:cd:4f:fa:e6:9d:c7:59:ab:79:02:da:12:1f:
         d0:2e:43:96:e4:3b:9b:12:34:ad:30:dd:79:6f:0b:0f:08:79:
         df:bd:b9:97:d3:ca:2a:20:26:ce:09:f8:47:02:eb:05:33:25:
         08:7b:4d:12:8b:b3:90:8a:d2:6c:02:10:f3:73:e0:7d:f7:7f:
         00:a2:b9:13:ae:ef:48:cc:dd:56:a6:79:1a:ca:44:bc:f4:b7:
         a0:3e:f3:de:43:31:f4:b0:b2:aa:52:d2:9b:46:96:44:93:c8:
         6b:b6:60:59:b5:f8:65:ee:d3:aa:f8:a1:ae:de:de:4c:90:e7:
         76:88:48:e4:9f:45:0d:af:ea:af:19:03:32:0e:15:c8:66:0f:
         74:e3:9f:1a
-----BEGIN CERTIFICATE-----
MIIFBDCCA+ygAwIBAgIBBTANBgkqhkiG9w0BAQsFADCBmjELMAkGA1UEBhMCQ0Ex
EDAOBgNVBAgTB09udGFyaW8xEDAOBgNVBAcTB1Rvcm9udG8xDTALBgNVBAoTBFNh
dmkxDTALBgNVBAsTBFNhdmkxEDAOBgNVBAMTB1NhdmkgQ0ExEDAOBgNVBCkTB0Vh
c3lSU0ExJTAjBgkqhkiG9w0BCQEWFnNwYW5kYW5Ac2F2aW5ldHdvcmsuY2EwHhcN
MTYwNTE3MDAwNDI5WhcNMjYwNTE1MDAwNDI5WjCBmjELMAkGA1UEBhMCQ0ExEDAO
BgNVBAgTB09udGFyaW8xEDAOBgNVBAcTB1Rvcm9udG8xDTALBgNVBAoTBFNhdmkx
DTALBgNVBAsTBFNhdmkxEDAOBgNVBAMTB2NsaWVudDQxEDAOBgNVBCkTB0Vhc3lS
U0ExJTAjBgkqhkiG9w0BCQEWFnNwYW5kYW5Ac2F2aW5ldHdvcmsuY2EwggEiMA0G
CSqGSIb3DQEBAQUAA4IBDwAwggEKAoIBAQDf+Oi0b8QqgpfoQPyhNmFpWO2fG+L+
QwwBcDzYtiRtjO9hvzsIPZVhL1Cfz2VnIqU2g/eCts73T99pW3OP+OJYdAfwzgkz
uP5AZcLuT8I6n5kWodOh0Rv1rOzGR5qd+DjgEGsfoI+VJ7vBWmgXkLWXlUGaKv0Z
LOFOAJRDv/0KhvB96kihQENP2zvoOYfefMZc/9HYLf/KyFV33zndJ1VyUj/m+jhx
ukgaqhR1TxDkcvSUCrKPL1qTUvuCIkmsgcuk4fAmJ8wwgkoMxlbSXAxgipMtMWfM
j2ADSBT8ygU7k+wdEEzmZE+p0gPczJ/NUX1TVv0//SAJIFNXQ9OmSeH5AgMBAAGj
ggFRMIIBTTAJBgNVHRMEAjAAMC0GCWCGSAGG+EIBDQQgFh5FYXN5LVJTQSBHZW5l
cmF0ZWQgQ2VydGlmaWNhdGUwHQYDVR0OBBYEFONnUXJq8iqk139R8V3a0lwlVAgs
MIHPBgNVHSMEgccwgcSAFCj/6RlA+4hAjA9o9Cb5IEnl4TP7oYGgpIGdMIGaMQsw
CQYDVQQGEwJDQTEQMA4GA1UECBMHT250YXJpbzEQMA4GA1UEBxMHVG9yb250bzEN
MAsGA1UEChMEU2F2aTENMAsGA1UECxMEU2F2aTEQMA4GA1UEAxMHU2F2aSBDQTEQ
MA4GA1UEKRMHRWFzeVJTQTElMCMGCSqGSIb3DQEJARYWc3BhbmRhbkBzYXZpbmV0
d29yay5jYYIJAPm4FbfpC/c2MBMGA1UdJQQMMAoGCCsGAQUFBwMCMAsGA1UdDwQE
AwIHgDANBgkqhkiG9w0BAQsFAAOCAQEACY89m0Xk2St+S6byZgzgI/G+rxn4wfpQ
FXq+cFi7nXJjexbmMuCtN1KcYZZHRJwOIY3fDmIM5yXiXmuvxT/W9kpgywwHHSRJ
wHLRqWR85pVhkOJB5C2cIChBc1HnzBz5o9nn6ZlkixFLuNOWxEYypKvNT/rmncdZ
q3kC2hIf0C5DluQ7mxI0rTDdeW8LDwh53725l9PKKiAmzgn4RwLrBTMlCHtNEouz
kIrSbAIQ83Pgffd/AKK5E67vSMzdVqZ5GspEvPS3oD7z3kMx9LCyqlLSm0aWRJPI
a7ZgWbX4Ze7Tqvihrt7eTJDndohI5J9FDa/qrxkDMg4VyGYPdOOfGg==
-----END CERTIFICATE-----
