Certificate:
    Data:
        Version: 3 (0x2)
        Serial Number: 2 (0x2)
    Signature Algorithm: sha256WithRSAEncryption
        Issuer: C=CA, ST=Ontario, L=Toronto, O=Savi, OU=Savi, CN=Savi CA/name=EasyRSA/emailAddress=spandan@savinetwork.ca
        Validity
            Not Before: May  2 15:38:12 2016 GMT
            Not After : Apr 30 15:38:12 2026 GMT
        Subject: C=CA, ST=Ontario, L=Toronto, O=Savi, OU=Savi, CN=client1/name=EasyRSA/emailAddress=spandan@savinetwork.ca
        Subject Public Key Info:
            Public Key Algorithm: rsaEncryption
                Public-Key: (2048 bit)
                Modulus:
                    00:d1:dd:46:08:f0:bd:de:b5:c4:b1:1a:13:d7:f8:
                    a1:aa:34:64:c0:c9:41:79:c3:76:f7:a4:d2:17:65:
                    0a:23:24:fc:76:01:f2:87:9f:a0:f4:b7:95:b6:b2:
                    7b:b5:a9:5d:7f:58:bd:af:20:99:8d:43:7c:c7:44:
                    24:9b:e1:66:8e:0f:b2:99:cc:bc:71:97:5a:0c:7e:
                    f8:73:8b:06:60:39:af:fe:5e:70:aa:98:e2:e7:74:
                    3b:3a:23:f3:06:07:b3:d4:ed:1b:65:58:5e:2e:f2:
                    6f:45:5b:81:cf:1d:9e:be:35:d6:cc:24:d8:09:6b:
                    e5:ea:0d:be:1d:be:b2:0c:5e:9f:0a:69:a8:03:f0:
                    bf:a3:a3:be:10:3c:c5:11:36:41:ef:13:2d:25:b6:
                    1a:25:88:02:b6:e3:23:39:78:a0:d8:c5:43:6c:d9:
                    93:ed:b9:6d:0c:b0:e1:f5:c3:aa:60:0f:9e:c7:3a:
                    49:37:96:30:4c:45:8e:e9:7a:cb:f8:18:37:55:ad:
                    44:d4:83:ee:73:2d:8a:ea:82:85:cd:ae:84:39:49:
                    8f:30:a0:e1:0b:dc:87:de:d8:83:cc:0f:3a:d2:04:
                    0b:73:43:c6:f3:d5:dd:a2:a8:5c:93:d6:7d:6d:39:
                    1e:be:d2:e8:4c:1c:88:11:8c:2f:b5:2d:31:90:f8:
                    88:db
                Exponent: 65537 (0x10001)
        X509v3 extensions:
            X509v3 Basic Constraints: 
                CA:FALSE
            Netscape Comment: 
                Easy-RSA Generated Certificate
            X509v3 Subject Key Identifier: 
                D0:ED:53:4D:D6:5D:97:0B:B6:38:D1:85:80:77:97:A7:85:CC:D5:60
            X509v3 Authority Key Identifier: 
                keyid:28:FF:E9:19:40:FB:88:40:8C:0F:68:F4:26:F9:20:49:E5:E1:33:FB
                DirName:/C=CA/ST=Ontario/L=Toronto/O=Savi/OU=Savi/CN=Savi CA/name=EasyRSA/emailAddress=spandan@savinetwork.ca
                serial:F9:B8:15:B7:E9:0B:F7:36

            X509v3 Extended Key Usage: 
                TLS Web Client Authentication
            X509v3 Key Usage: 
                Digital Signature
    Signature Algorithm: sha256WithRSAEncryption
         75:1e:ef:19:64:c6:13:ee:9e:fc:35:95:ee:90:9f:a5:c7:49:
         af:fa:33:2e:16:d4:1d:e4:ff:04:38:bd:7b:81:ce:aa:2f:0c:
         cc:b7:78:51:f3:b1:6a:ac:95:79:54:c8:d7:b6:b9:2c:b9:30:
         d2:38:0b:1e:b5:0b:9d:5c:79:11:5c:08:a1:42:30:f5:42:0d:
         96:ce:15:5b:46:3a:8c:ba:43:43:9a:40:45:ad:11:0c:cf:a8:
         8f:e1:8f:16:ba:0f:cb:83:86:df:89:08:b2:51:85:a5:18:1d:
         89:00:3d:14:b5:8b:38:fd:0e:d1:ae:f9:ed:f2:e6:34:04:9d:
         38:5d:46:15:f9:ce:f1:ed:f1:f0:83:66:16:bb:31:e4:81:97:
         7b:e5:8b:d9:8c:cf:8a:76:7e:8c:e2:73:2f:3d:ae:bc:22:e8:
         65:34:25:bc:df:9b:02:5a:85:b1:00:7c:85:34:cf:c8:64:28:
         67:82:66:3c:48:af:b1:d4:50:f4:c9:57:c4:ba:de:27:2a:2b:
         79:30:b3:67:6d:78:76:7a:f4:06:0f:69:10:c6:7d:0f:54:cc:
         7d:89:0c:20:2b:6b:bf:7b:c3:7a:1c:b0:f1:70:0b:5b:83:1a:
         ed:8c:b0:56:1f:0d:1d:25:fd:81:35:36:93:73:3e:50:82:e0:
         e7:a8:b4:ca
-----BEGIN CERTIFICATE-----
MIIFBDCCA+ygAwIBAgIBAjANBgkqhkiG9w0BAQsFADCBmjELMAkGA1UEBhMCQ0Ex
EDAOBgNVBAgTB09udGFyaW8xEDAOBgNVBAcTB1Rvcm9udG8xDTALBgNVBAoTBFNh
dmkxDTALBgNVBAsTBFNhdmkxEDAOBgNVBAMTB1NhdmkgQ0ExEDAOBgNVBCkTB0Vh
c3lSU0ExJTAjBgkqhkiG9w0BCQEWFnNwYW5kYW5Ac2F2aW5ldHdvcmsuY2EwHhcN
MTYwNTAyMTUzODEyWhcNMjYwNDMwMTUzODEyWjCBmjELMAkGA1UEBhMCQ0ExEDAO
BgNVBAgTB09udGFyaW8xEDAOBgNVBAcTB1Rvcm9udG8xDTALBgNVBAoTBFNhdmkx
DTALBgNVBAsTBFNhdmkxEDAOBgNVBAMTB2NsaWVudDExEDAOBgNVBCkTB0Vhc3lS
U0ExJTAjBgkqhkiG9w0BCQEWFnNwYW5kYW5Ac2F2aW5ldHdvcmsuY2EwggEiMA0G
CSqGSIb3DQEBAQUAA4IBDwAwggEKAoIBAQDR3UYI8L3etcSxGhPX+KGqNGTAyUF5
w3b3pNIXZQojJPx2AfKHn6D0t5W2snu1qV1/WL2vIJmNQ3zHRCSb4WaOD7KZzLxx
l1oMfvhziwZgOa/+XnCqmOLndDs6I/MGB7PU7RtlWF4u8m9FW4HPHZ6+NdbMJNgJ
a+XqDb4dvrIMXp8KaagD8L+jo74QPMURNkHvEy0ltholiAK24yM5eKDYxUNs2ZPt
uW0MsOH1w6pgD57HOkk3ljBMRY7pesv4GDdVrUTUg+5zLYrqgoXNroQ5SY8woOEL
3Ife2IPMDzrSBAtzQ8bz1d2iqFyT1n1tOR6+0uhMHIgRjC+1LTGQ+IjbAgMBAAGj
ggFRMIIBTTAJBgNVHRMEAjAAMC0GCWCGSAGG+EIBDQQgFh5FYXN5LVJTQSBHZW5l
cmF0ZWQgQ2VydGlmaWNhdGUwHQYDVR0OBBYEFNDtU03WXZcLtjjRhYB3l6eFzNVg
MIHPBgNVHSMEgccwgcSAFCj/6RlA+4hAjA9o9Cb5IEnl4TP7oYGgpIGdMIGaMQsw
CQYDVQQGEwJDQTEQMA4GA1UECBMHT250YXJpbzEQMA4GA1UEBxMHVG9yb250bzEN
MAsGA1UEChMEU2F2aTENMAsGA1UECxMEU2F2aTEQMA4GA1UEAxMHU2F2aSBDQTEQ
MA4GA1UEKRMHRWFzeVJTQTElMCMGCSqGSIb3DQEJARYWc3BhbmRhbkBzYXZpbmV0
d29yay5jYYIJAPm4FbfpC/c2MBMGA1UdJQQMMAoGCCsGAQUFBwMCMAsGA1UdDwQE
AwIHgDANBgkqhkiG9w0BAQsFAAOCAQEAdR7vGWTGE+6e/DWV7pCfpcdJr/ozLhbU
HeT/BDi9e4HOqi8MzLd4UfOxaqyVeVTI17a5LLkw0jgLHrULnVx5EVwIoUIw9UIN
ls4VW0Y6jLpDQ5pARa0RDM+oj+GPFroPy4OG34kIslGFpRgdiQA9FLWLOP0O0a75
7fLmNASdOF1GFfnO8e3x8INmFrsx5IGXe+WL2YzPinZ+jOJzLz2uvCLoZTQlvN+b
AlqFsQB8hTTPyGQoZ4JmPEivsdRQ9MlXxLreJyoreTCzZ214dnr0Bg9pEMZ9D1TM
fYkMICtrv3vDehyw8XALW4Ma7YywVh8NHSX9gTU2k3M+UILg56i0yg==
-----END CERTIFICATE-----
